Certificate:
    Data:
        Version: 3 (0x2)
        Serial Number: 698 (0x2ba)
        Signature Algorithm: ecdsa-with-SHA256
        Issuer: C=GB, O=SSS, OU=CA, CN=SSCA256
        Validity
            Not Before: Jun 29 06:36:41 2026 GMT
            Not After : Jan 30 16:46:00 2029 GMT
        Subject: C=GB, O=cpwebuse2, CN=tempcert
        Subject Public Key Info:
            Public Key Algorithm: rsaEncryption
                Public-Key: (2048 bit)
                Modulus:
                    00:9b:ab:22:ca:2e:c7:49:7a:c8:c6:71:b9:91:c3:
                    77:08:76:53:d0:10:a4:8b:64:58:c0:5b:9e:8f:1d:
                    55:8b:55:fe:b5:49:06:c5:43:47:d2:08:7b:85:13:
                    fb:fc:cc:37:ef:ae:12:e5:a8:ab:6a:1b:7d:a9:f0:
                    2f:12:f1:07:90:e2:ca:41:ba:c6:d8:16:58:02:b7:
                    a4:ec:3d:1f:f8:3f:41:b6:6b:53:8c:4c:8a:8a:94:
                    c8:9f:62:a8:0f:a5:f9:ca:89:fd:4a:77:fc:dd:d3:
                    b8:2c:66:29:9f:fe:54:5d:ba:f3:41:d5:5f:28:ac:
                    4a:d0:5f:11:6d:00:37:35:e8:26:6f:bb:f3:84:61:
                    f5:9a:fa:b4:6f:7d:d8:f5:b1:17:d6:90:e6:14:dd:
                    04:15:a4:29:92:ad:39:d8:a3:40:87:1a:14:be:a9:
                    59:42:2e:f0:f7:ce:fd:58:54:bc:8f:f2:28:ed:32:
                    ef:8f:89:e7:90:e3:e2:79:fc:c0:0d:45:89:68:6c:
                    dc:fe:46:ce:c0:31:13:f5:be:99:c1:8b:7d:54:b7:
                    6b:59:3f:ab:5d:93:b4:52:da:0e:a6:06:81:21:46:
                    e1:08:cf:f3:a6:c2:2d:ce:23:aa:eb:fc:dc:b8:1e:
                    4a:b6:76:28:29:49:8a:fc:29:4c:4d:e0:14:b5:58:
                    c7:d1
                Exponent: 65537 (0x10001)
        X509v3 extensions:
            X509v3 Key Usage: 
                Digital Signature, Non Repudiation, Key Encipherment, Data Encipherment, Key Agreement
            X509v3 Subject Alternative Name: 
                DNS:localhost, IP Address:10.1.0.2, DNS:openssl_ca_user_cnf.keyAgreement2
            X509v3 Extended Key Usage: 
                TLS Web Server Authentication, TLS Web Client Authentication
            X509v3 Subject Key Identifier: 
                4C:A5:F9:35:50:24:82:F1:71:64:E4:52:E9:72:C0:A3:1E:4B:6E:08
            X509v3 Authority Key Identifier: 
                keyid:84:97:F0:F3:F5:60:35:CD:4F:20:E9:09:59:E1:F6:E0:90:E0:51:AB
                DirName:/C=GB/O=SSS/OU=CA/CN=SSCA256
                serial:6F:43:7C:5F:06:FF:58:DB:A5:86:08:F3:45:C2:30:54:19:9F:01:7C
    Signature Algorithm: ecdsa-with-SHA256
    Signature Value:
        30:45:02:20:2d:18:c0:17:f8:e5:c8:91:57:34:e3:dd:19:99:
        90:9f:19:a0:03:ed:02:1c:d9:19:46:7e:57:0e:95:72:7a:61:
        02:21:00:bb:80:56:1f:b8:de:1e:b3:30:ab:21:0c:d8:62:78:
        59:ef:94:1f:51:a0:1d:2d:eb:4b:74:1e:0c:32:29:b6:5c
-----BEGIN CERTIFICATE-----
MIIDMDCCAtagAwIBAgICArowCgYIKoZIzj0EAwIwOjELMAkGA1UEBhMCR0IxDDAK
BgNVBAoMA1NTUzELMAkGA1UECwwCQ0ExEDAOBgNVBAMMB1NTQ0EyNTYwHhcNMjYw
NjI5MDYzNjQxWhcNMjkwMTMwMTY0NjAwWjA0MQswCQYDVQQGEwJHQjESMBAGA1UE
CgwJY3B3ZWJ1c2UyMREwDwYDVQQDDAh0ZW1wY2VydDCCASIwDQYJKoZIhvcNAQEB
BQADggEPADCCAQoCggEBAJurIsoux0l6yMZxuZHDdwh2U9AQpItkWMBbno8dVYtV
/rVJBsVDR9IIe4UT+/zMN++uEuWoq2obfanwLxLxB5DiykG6xtgWWAK3pOw9H/g/
QbZrU4xMioqUyJ9iqA+l+cqJ/Up3/N3TuCxmKZ/+VF2680HVXyisStBfEW0ANzXo
Jm+784Rh9Zr6tG992PWxF9aQ5hTdBBWkKZKtOdijQIcaFL6pWUIu8PfO/VhUvI/y
KO0y74+J55Dj4nn8wA1FiWhs3P5GzsAxE/W+mcGLfVS3a1k/q12TtFLaDqYGgSFG
4QjP86bCLc4jquv83LgeSrZ2KClJivwpTE3gFLVYx9ECAwEAAaOCAQUwggEBMAsG
A1UdDwQEAwID+DA9BgNVHREENjA0gglsb2NhbGhvc3SHBAoBAAKCIW9wZW5zc2xf
Y2FfdXNlcl9jbmYua2V5QWdyZWVtZW50MjAdBgNVHSUEFjAUBggrBgEFBQcDAQYI
KwYBBQUHAwIwHQYDVR0OBBYEFEyl+TVQJILxcWTkUulywKMeS24IMHUGA1UdIwRu
MGyAFISX8PP1YDXNTyDpCVnh9uCQ4FGroT6kPDA6MQswCQYDVQQGEwJHQjEMMAoG
A1UECgwDU1NTMQswCQYDVQQLDAJDQTEQMA4GA1UEAwwHU1NDQTI1NoIUb0N8Xwb/
WNulhgjzRcIwVBmfAXwwCgYIKoZIzj0EAwIDSAAwRQIgLRjAF/jlyJFXNOPdGZmQ
nxmgA+0CHNkZRn5XDpVyemECIQC7gFYfuN4eszCrIQzYYnhZ75QfUaAdLetLdB4M
Mim2XA==
-----END CERTIFICATE-----
